target datalayout = "e-m:e-p270:32:32-p271:32:32-p272:64:64-i64:64-i128:128-f80:128-n8:16:32:64-S128"
target triple = "x86_64-pc-linux-gnu"

%struct.Sbd_Sto_t_ = type { i32, i32, i32, i32, i32, ptr, ptr, ptr, ptr, ptr, ptr, ptr, [3 x [501 x %struct.Sbd_Cut_t_]], [501 x ptr], i32, i32, i32, i32, i32, i32, [4 x double], i64 }
%struct.Sbd_Cut_t_ = type { i64, i32, i32, i32, i32, [10 x i32] }
%struct.Vec_Int_t_ = type { i32, i32, ptr }
%struct.Vec_Wec_t_ = type { i32, i32, ptr }
%struct.Vec_Mem_t_ = type { i32, i32, i32, i32, i32, i32, ptr, ptr, ptr }

; Function Attrs: inlinehint nounwind uwtable
define internal void @Vec_IntFreeP(ptr noundef %0) #2 {
  %2 = alloca ptr, align 8
  store ptr %0, ptr %2, align 8, !tbaa !160
  %3 = load ptr, ptr %2, align 8, !tbaa !160
  %4 = load ptr, ptr %3, align 8, !tbaa !56
  %5 = icmp eq ptr %4, null
  br i1 %5, label %6, label %7

6:                                                ; preds = %1
  br label %32

7:                                                ; preds = %1
  %8 = load ptr, ptr %2, align 8, !tbaa !160
  %9 = load ptr, ptr %8, align 8, !tbaa !56
  %10 = getelementptr inbounds nuw %struct.Vec_Int_t_, ptr %9, i32 0, i32 2
  %11 = load ptr, ptr %10, align 8, !tbaa !57
  %12 = icmp ne ptr %11, null
  br i1 %12, label %13, label %21

13:                                               ; preds = %7
  %14 = load ptr, ptr %2, align 8, !tbaa !160
  %15 = load ptr, ptr %14, align 8, !tbaa !56
  %16 = getelementptr inbounds nuw %struct.Vec_Int_t_, ptr %15, i32 0, i32 2
  %17 = load ptr, ptr %16, align 8, !tbaa !57
  call void @free(ptr noundef %17) #12
  %18 = load ptr, ptr %2, align 8, !tbaa !160
  %19 = load ptr, ptr %18, align 8, !tbaa !56
  %20 = getelementptr inbounds nuw %struct.Vec_Int_t_, ptr %19, i32 0, i32 2
  store ptr null, ptr %20, align 8, !tbaa !57
  br label %22

21:                                               ; preds = %7
  br label %22

22:                                               ; preds = %21, %13
  %23 = load ptr, ptr %2, align 8, !tbaa !160
  %24 = load ptr, ptr %23, align 8, !tbaa !56
  %25 = icmp ne ptr %24, null
  br i1 %25, label %26, label %30

26:                                               ; preds = %22
  %27 = load ptr, ptr %2, align 8, !tbaa !160
  %28 = load ptr, ptr %27, align 8, !tbaa !56
  call void @free(ptr noundef %28) #12
  %29 = load ptr, ptr %2, align 8, !tbaa !160
  store ptr null, ptr %29, align 8, !tbaa !56
  br label %31

30:                                               ; preds = %22
  br label %31

31:                                               ; preds = %30, %26
  br label %32

32:                                               ; preds = %31, %6
  ret void
}

; Function Attrs: inlinehint nounwind uwtable
define internal void @Vec_WecErase(ptr noundef %0) #2 {
  %2 = alloca ptr, align 8
  %3 = alloca i32, align 4
  store ptr %0, ptr %2, align 8, !tbaa !93
  call void @llvm.lifetime.start.p0(i64 4, ptr %3) #12
  store i32 0, ptr %3, align 4, !tbaa !8
  br label %4

4:                                                ; preds = %38, %1
  %5 = load i32, ptr %3, align 4, !tbaa !8
  %6 = load ptr, ptr %2, align 8, !tbaa !93
  %7 = getelementptr inbounds nuw %struct.Vec_Wec_t_, ptr %6, i32 0, i32 0
  %8 = load i32, ptr %7, align 8, !tbaa !102
  %9 = icmp slt i32 %5, %8
  br i1 %9, label %10, label %41

10:                                               ; preds = %4
  %11 = load ptr, ptr %2, align 8, !tbaa !93
  %12 = getelementptr inbounds nuw %struct.Vec_Wec_t_, ptr %11, i32 0, i32 2
  %13 = load ptr, ptr %12, align 8, !tbaa !115
  %14 = load i32, ptr %3, align 4, !tbaa !8
  %15 = sext i32 %14 to i64
  %16 = getelementptr inbounds %struct.Vec_Int_t_, ptr %13, i64 %15
  %17 = getelementptr inbounds nuw %struct.Vec_Int_t_, ptr %16, i32 0, i32 2
  %18 = load ptr, ptr %17, align 8, !tbaa !57
  %19 = icmp ne ptr %18, null
  br i1 %19, label %20, label %36

20:                                               ; preds = %10
  %21 = load ptr, ptr %2, align 8, !tbaa !93
  %22 = getelementptr inbounds nuw %struct.Vec_Wec_t_, ptr %21, i32 0, i32 2
  %23 = load ptr, ptr %22, align 8, !tbaa !115
  %24 = load i32, ptr %3, align 4, !tbaa !8
  %25 = sext i32 %24 to i64
  %26 = getelementptr inbounds %struct.Vec_Int_t_, ptr %23, i64 %25
  %27 = getelementptr inbounds nuw %struct.Vec_Int_t_, ptr %26, i32 0, i32 2
  %28 = load ptr, ptr %27, align 8, !tbaa !57
  call void @free(ptr noundef %28) #12
  %29 = load ptr, ptr %2, align 8, !tbaa !93
  %30 = getelementptr inbounds nuw %struct.Vec_Wec_t_, ptr %29, i32 0, i32 2
  %31 = load ptr, ptr %30, align 8, !tbaa !115
  %32 = load i32, ptr %3, align 4, !tbaa !8
  %33 = sext i32 %32 to i64
  %34 = getelementptr inbounds %struct.Vec_Int_t_, ptr %31, i64 %33
  %35 = getelementptr inbounds nuw %struct.Vec_Int_t_, ptr %34, i32 0, i32 2
  store ptr null, ptr %35, align 8, !tbaa !57
  br label %37

36:                                               ; preds = %10
  br label %37

37:                                               ; preds = %36, %20
  br label %38

38:                                               ; preds = %37
  %39 = load i32, ptr %3, align 4, !tbaa !8
  %40 = add nsw i32 %39, 1
  store i32 %40, ptr %3, align 4, !tbaa !8
  br label %4, !llvm.loop !159

41:                                               ; preds = %4
  %42 = load ptr, ptr %2, align 8, !tbaa !93
  %43 = getelementptr inbounds nuw %struct.Vec_Wec_t_, ptr %42, i32 0, i32 2
  %44 = load ptr, ptr %43, align 8, !tbaa !115
  %45 = icmp ne ptr %44, null
  br i1 %45, label %46, label %52

46:                                               ; preds = %41
  %47 = load ptr, ptr %2, align 8, !tbaa !93
  %48 = getelementptr inbounds nuw %struct.Vec_Wec_t_, ptr %47, i32 0, i32 2
  %49 = load ptr, ptr %48, align 8, !tbaa !115
  call void @free(ptr noundef %49) #12
  %50 = load ptr, ptr %2, align 8, !tbaa !93
  %51 = getelementptr inbounds nuw %struct.Vec_Wec_t_, ptr %50, i32 0, i32 2
  store ptr null, ptr %51, align 8, !tbaa !115
  br label %53

52:                                               ; preds = %41
  br label %53

53:                                               ; preds = %52, %46
  %54 = load ptr, ptr %2, align 8, !tbaa !93
  %55 = getelementptr inbounds nuw %struct.Vec_Wec_t_, ptr %54, i32 0, i32 1
  store i32 0, ptr %55, align 4, !tbaa !94
  %56 = load ptr, ptr %2, align 8, !tbaa !93
  %57 = getelementptr inbounds nuw %struct.Vec_Wec_t_, ptr %56, i32 0, i32 0
  store i32 0, ptr %57, align 8, !tbaa !102
  call void @llvm.lifetime.end.p0(i64 4, ptr %3) #12
  ret void
}

; Function Attrs: inlinehint nounwind uwtable
define internal void @Vec_MemFree(ptr noundef %0) #2 {
  %2 = alloca ptr, align 8
  %3 = alloca i32, align 4
  store ptr %0, ptr %2, align 8, !tbaa !96
  call void @llvm.lifetime.start.p0(i64 4, ptr %3) #12
  store i32 0, ptr %3, align 4, !tbaa !8
  br label %4

4:                                                ; preds = %35, %1
  %5 = load i32, ptr %3, align 4, !tbaa !8
  %6 = load ptr, ptr %2, align 8, !tbaa !96
  %7 = getelementptr inbounds nuw %struct.Vec_Mem_t_, ptr %6, i32 0, i32 5
  %8 = load i32, ptr %7, align 4, !tbaa !97
  %9 = icmp sle i32 %5, %8
  br i1 %9, label %10, label %38

10:                                               ; preds = %4
  %11 = load ptr, ptr %2, align 8, !tbaa !96
  %12 = getelementptr inbounds nuw %struct.Vec_Mem_t_, ptr %11, i32 0, i32 6
  %13 = load ptr, ptr %12, align 8, !tbaa !100
  %14 = load i32, ptr %3, align 4, !tbaa !8
  %15 = sext i32 %14 to i64
  %16 = getelementptr inbounds ptr, ptr %13, i64 %15
  %17 = load ptr, ptr %16, align 8, !tbaa !69
  %18 = icmp ne ptr %17, null
  br i1 %18, label %19, label %33

19:                                               ; preds = %10
  %20 = load ptr, ptr %2, align 8, !tbaa !96
  %21 = getelementptr inbounds nuw %struct.Vec_Mem_t_, ptr %20, i32 0, i32 6
  %22 = load ptr, ptr %21, align 8, !tbaa !100
  %23 = load i32, ptr %3, align 4, !tbaa !8
  %24 = sext i32 %23 to i64
  %25 = getelementptr inbounds ptr, ptr %22, i64 %24
  %26 = load ptr, ptr %25, align 8, !tbaa !69
  call void @free(ptr noundef %26) #12
  %27 = load ptr, ptr %2, align 8, !tbaa !96
  %28 = getelementptr inbounds nuw %struct.Vec_Mem_t_, ptr %27, i32 0, i32 6
  %29 = load ptr, ptr %28, align 8, !tbaa !100
  %30 = load i32, ptr %3, align 4, !tbaa !8
  %31 = sext i32 %30 to i64
  %32 = getelementptr inbounds ptr, ptr %29, i64 %31
  store ptr null, ptr %32, align 8, !tbaa !69
  br label %34

33:                                               ; preds = %10
  br label %34

34:                                               ; preds = %33, %19
  br label %35

35:                                               ; preds = %34
  %36 = load i32, ptr %3, align 4, !tbaa !8
  %37 = add nsw i32 %36, 1
  store i32 %37, ptr %3, align 4, !tbaa !8
  br label %4, !llvm.loop !101

38:                                               ; preds = %4
  %39 = load ptr, ptr %2, align 8, !tbaa !96
  %40 = getelementptr inbounds nuw %struct.Vec_Mem_t_, ptr %39, i32 0, i32 6
  %41 = load ptr, ptr %40, align 8, !tbaa !100
  %42 = icmp ne ptr %41, null
  br i1 %42, label %43, label %49

43:                                               ; preds = %38
  %44 = load ptr, ptr %2, align 8, !tbaa !96
  %45 = getelementptr inbounds nuw %struct.Vec_Mem_t_, ptr %44, i32 0, i32 6
  %46 = load ptr, ptr %45, align 8, !tbaa !100
  call void @free(ptr noundef %46) #12
  %47 = load ptr, ptr %2, align 8, !tbaa !96
  %48 = getelementptr inbounds nuw %struct.Vec_Mem_t_, ptr %47, i32 0, i32 6
  store ptr null, ptr %48, align 8, !tbaa !100
  br label %50

49:                                               ; preds = %38
  br label %50

50:                                               ; preds = %49, %43
  %51 = load ptr, ptr %2, align 8, !tbaa !96
  %52 = icmp ne ptr %51, null
  br i1 %52, label %53, label %55

53:                                               ; preds = %50
  %54 = load ptr, ptr %2, align 8, !tbaa !96
  call void @free(ptr noundef %54) #12
  store ptr null, ptr %2, align 8, !tbaa !96
  br label %56

55:                                               ; preds = %50
  br label %56

56:                                               ; preds = %55, %53
  call void @llvm.lifetime.end.p0(i64 4, ptr %3) #12
  ret void
}

; Function Attrs: inlinehint nounwind uwtable
define internal void @Vec_MemHashFree(ptr noundef %0) #2 {
  %2 = alloca ptr, align 8
  store ptr %0, ptr %2, align 8, !tbaa !96
  %3 = load ptr, ptr %2, align 8, !tbaa !96
  %4 = icmp eq ptr %3, null
  br i1 %4, label %5, label %6

5:                                                ; preds = %1
  br label %11

6:                                                ; preds = %1
  %7 = load ptr, ptr %2, align 8, !tbaa !96
  %8 = getelementptr inbounds nuw %struct.Vec_Mem_t_, ptr %7, i32 0, i32 7
  call void @Vec_IntFreeP(ptr noundef %8)
  %9 = load ptr, ptr %2, align 8, !tbaa !96
  %10 = getelementptr inbounds nuw %struct.Vec_Mem_t_, ptr %9, i32 0, i32 8
  call void @Vec_IntFreeP(ptr noundef %10)
  br label %11

11:                                               ; preds = %6, %5
  ret void
}

; Function Attrs: inlinehint nounwind uwtable
define internal void @Vec_WecFree(ptr noundef %0) #2 {
  %2 = alloca ptr, align 8
  store ptr %0, ptr %2, align 8, !tbaa !93
  %3 = load ptr, ptr %2, align 8, !tbaa !93
  call void @Vec_WecErase(ptr noundef %3)
  %4 = load ptr, ptr %2, align 8, !tbaa !93
  %5 = icmp ne ptr %4, null
  br i1 %5, label %6, label %8

6:                                                ; preds = %1
  %7 = load ptr, ptr %2, align 8, !tbaa !93
  call void @free(ptr noundef %7) #12
  store ptr null, ptr %2, align 8, !tbaa !93
  br label %9

8:                                                ; preds = %1
  br label %9

9:                                                ; preds = %8, %6
  ret void
}

; Function Attrs: inlinehint nounwind uwtable
define internal void @Vec_IntFree(ptr noundef %0) #2 {
  %2 = alloca ptr, align 8
  store ptr %0, ptr %2, align 8, !tbaa !56
  %3 = load ptr, ptr %2, align 8, !tbaa !56
  %4 = getelementptr inbounds nuw %struct.Vec_Int_t_, ptr %3, i32 0, i32 2
  %5 = load ptr, ptr %4, align 8, !tbaa !57
  %6 = icmp ne ptr %5, null
  br i1 %6, label %7, label %13

7:                                                ; preds = %1
  %8 = load ptr, ptr %2, align 8, !tbaa !56
  %9 = getelementptr inbounds nuw %struct.Vec_Int_t_, ptr %8, i32 0, i32 2
  %10 = load ptr, ptr %9, align 8, !tbaa !57
  call void @free(ptr noundef %10) #12
  %11 = load ptr, ptr %2, align 8, !tbaa !56
  %12 = getelementptr inbounds nuw %struct.Vec_Int_t_, ptr %11, i32 0, i32 2
  store ptr null, ptr %12, align 8, !tbaa !57
  br label %14

13:                                               ; preds = %1
  br label %14

14:                                               ; preds = %13, %7
  %15 = load ptr, ptr %2, align 8, !tbaa !56
  %16 = icmp ne ptr %15, null
  br i1 %16, label %17, label %19

17:                                               ; preds = %14
  %18 = load ptr, ptr %2, align 8, !tbaa !56
  call void @free(ptr noundef %18) #12
  store ptr null, ptr %2, align 8, !tbaa !56
  br label %20

19:                                               ; preds = %14
  br label %20

20:                                               ; preds = %19, %17
  ret void
}

; Function Attrs: nounwind uwtable
define void @Sbd_StoFree(ptr noundef %0) #0 {
  %2 = alloca ptr, align 8
  store ptr %0, ptr %2, align 8, !tbaa !3
  %3 = load ptr, ptr %2, align 8, !tbaa !3
  %4 = getelementptr inbounds nuw %struct.Sbd_Sto_t_, ptr %3, i32 0, i32 7
  %5 = load ptr, ptr %4, align 8, !tbaa !73
  call void @Vec_IntFree(ptr noundef %5)
  %6 = load ptr, ptr %2, align 8, !tbaa !3
  %7 = getelementptr inbounds nuw %struct.Sbd_Sto_t_, ptr %6, i32 0, i32 8
  %8 = load ptr, ptr %7, align 8, !tbaa !75
  call void @Vec_IntFree(ptr noundef %8)
  %9 = load ptr, ptr %2, align 8, !tbaa !3
  %10 = getelementptr inbounds nuw %struct.Sbd_Sto_t_, ptr %9, i32 0, i32 9
  %11 = load ptr, ptr %10, align 8, !tbaa !77
  call void @Vec_IntFree(ptr noundef %11)
  %12 = load ptr, ptr %2, align 8, !tbaa !3
  %13 = getelementptr inbounds nuw %struct.Sbd_Sto_t_, ptr %12, i32 0, i32 10
  %14 = load ptr, ptr %13, align 8, !tbaa !58
  call void @Vec_WecFree(ptr noundef %14)
  %15 = load ptr, ptr %2, align 8, !tbaa !3
  %16 = getelementptr inbounds nuw %struct.Sbd_Sto_t_, ptr %15, i32 0, i32 3
  %17 = load i32, ptr %16, align 4, !tbaa !30
  %18 = icmp ne i32 %17, 0
  br i1 %18, label %19, label %23

19:                                               ; preds = %1
  %20 = load ptr, ptr %2, align 8, !tbaa !3
  %21 = getelementptr inbounds nuw %struct.Sbd_Sto_t_, ptr %20, i32 0, i32 11
  %22 = load ptr, ptr %21, align 8, !tbaa !71
  call void @Vec_MemHashFree(ptr noundef %22)
  br label %23

23:                                               ; preds = %19, %1
  %24 = load ptr, ptr %2, align 8, !tbaa !3
  %25 = getelementptr inbounds nuw %struct.Sbd_Sto_t_, ptr %24, i32 0, i32 3
  %26 = load i32, ptr %25, align 4, !tbaa !30
  %27 = icmp ne i32 %26, 0
  br i1 %27, label %28, label %32

28:                                               ; preds = %23
  %29 = load ptr, ptr %2, align 8, !tbaa !3
  %30 = getelementptr inbounds nuw %struct.Sbd_Sto_t_, ptr %29, i32 0, i32 11
  %31 = load ptr, ptr %30, align 8, !tbaa !71
  call void @Vec_MemFree(ptr noundef %31)
  br label %32

32:                                               ; preds = %28, %23
  %33 = load ptr, ptr %2, align 8, !tbaa !3
  %34 = icmp ne ptr %33, null
  br i1 %34, label %35, label %37

35:                                               ; preds = %32
  %36 = load ptr, ptr %2, align 8, !tbaa !3
  call void @free(ptr noundef %36) #12
  store ptr null, ptr %2, align 8, !tbaa !3
  br label %38

37:                                               ; preds = %32
  br label %38

38:                                               ; preds = %37, %35
  ret void
}