; Function Attrs: nounwind uwtable
define void @Sbd_StoFree(ptr noundef %0) local_unnamed_addr #0 {
  %2 = getelementptr inbounds nuw i8, ptr %0, i64 40
  %3 = load ptr, ptr %2, align 8, !tbaa !82
  %4 = getelementptr inbounds nuw i8, ptr %3, i64 8
  %5 = load ptr, ptr %4, align 8, !tbaa !34
  %.not.i = icmp eq ptr %5, null
  br i1 %.not.i, label %Vec_IntFree.exit, label %6

6:                                                ; preds = %1
  tail call void @free(ptr noundef nonnull %5) #23
  br label %Vec_IntFree.exit

Vec_IntFree.exit:                                 ; preds = %1, %6
  tail call void @free(ptr noundef nonnull %3) #23
  %7 = getelementptr inbounds nuw i8, ptr %0, i64 48
  %8 = load ptr, ptr %7, align 8, !tbaa !85
  %9 = getelementptr inbounds nuw i8, ptr %8, i64 8
  %10 = load ptr, ptr %9, align 8, !tbaa !34
  %.not.i12 = icmp eq ptr %10, null
  br i1 %.not.i12, label %Vec_IntFree.exit13, label %11

11:                                               ; preds = %Vec_IntFree.exit
  tail call void @free(ptr noundef nonnull %10) #23
  br label %Vec_IntFree.exit13

Vec_IntFree.exit13:                               ; preds = %Vec_IntFree.exit, %11
  tail call void @free(ptr noundef nonnull %8) #23
  %12 = getelementptr inbounds nuw i8, ptr %0, i64 56
  %13 = load ptr, ptr %12, align 8, !tbaa !88
  %14 = getelementptr inbounds nuw i8, ptr %13, i64 8
  %15 = load ptr, ptr %14, align 8, !tbaa !34
  %.not.i14 = icmp eq ptr %15, null
  br i1 %.not.i14, label %Vec_IntFree.exit15, label %16

16:                                               ; preds = %Vec_IntFree.exit13
  tail call void @free(ptr noundef nonnull %15) #23
  br label %Vec_IntFree.exit15

Vec_IntFree.exit15:                               ; preds = %Vec_IntFree.exit13, %16
  tail call void @free(ptr noundef nonnull %13) #23
  %17 = getelementptr inbounds nuw i8, ptr %0, i64 64
  %18 = load ptr, ptr %17, align 8, !tbaa !107
  %19 = load i32, ptr %18, align 8, !tbaa !122
  %20 = icmp sgt i32 %19, 0
  %21 = getelementptr inbounds nuw i8, ptr %18, i64 8
  %.pre.i.i = load ptr, ptr %21, align 8, !tbaa !108
  br i1 %20, label %.lr.ph.i.i, label %._crit_edge.i.i

.lr.ph.i.i:                                       ; preds = %Vec_IntFree.exit15, %29
  %22 = phi i32 [ %30, %29 ], [ %19, %Vec_IntFree.exit15 ]
  %23 = phi ptr [ %31, %29 ], [ %.pre.i.i, %Vec_IntFree.exit15 ]
  %indvars.iv.i.i = phi i64 [ %indvars.iv.next.i.i, %29 ], [ 0, %Vec_IntFree.exit15 ]
  %24 = getelementptr inbounds nuw %struct.Vec_Int_t_, ptr %23, i64 %indvars.iv.i.i, i32 2
  %25 = load ptr, ptr %24, align 8, !tbaa !34
  %.not15.i.i = icmp eq ptr %25, null
  br i1 %.not15.i.i, label %29, label %26

26:                                               ; preds = %.lr.ph.i.i
  tail call void @free(ptr noundef nonnull %25) #23
  %27 = load ptr, ptr %21, align 8, !tbaa !108
  %28 = getelementptr inbounds nuw %struct.Vec_Int_t_, ptr %27, i64 %indvars.iv.i.i, i32 2
  store ptr null, ptr %28, align 8, !tbaa !34
  %.pre18.i.i = load i32, ptr %18, align 8, !tbaa !122
  br label %29

29:                                               ; preds = %26, %.lr.ph.i.i
  %30 = phi i32 [ %.pre18.i.i, %26 ], [ %22, %.lr.ph.i.i ]
  %31 = phi ptr [ %27, %26 ], [ %23, %.lr.ph.i.i ]
  %indvars.iv.next.i.i = add nuw nsw i64 %indvars.iv.i.i, 1
  %32 = sext i32 %30 to i64
  %33 = icmp slt i64 %indvars.iv.next.i.i, %32
  br i1 %33, label %.lr.ph.i.i, label %._crit_edge.thread.i.i, !llvm.loop !129

._crit_edge.i.i:                                  ; preds = %Vec_IntFree.exit15
  %.not.i.i = icmp eq ptr %.pre.i.i, null
  br i1 %.not.i.i, label %Vec_WecFree.exit, label %._crit_edge.thread.i.i

._crit_edge.thread.i.i:                           ; preds = %29, %._crit_edge.i.i
  %34 = phi ptr [ %.pre.i.i, %._crit_edge.i.i ], [ %31, %29 ]
  tail call void @free(ptr noundef nonnull %34) #23
  br label %Vec_WecFree.exit

Vec_WecFree.exit:                                 ; preds = %._crit_edge.i.i, %._crit_edge.thread.i.i
  tail call void @free(ptr noundef nonnull %18) #23
  %35 = getelementptr inbounds nuw i8, ptr %0, i64 12
  %36 = load i32, ptr %35, align 4, !tbaa !51
  %.not = icmp eq i32 %36, 0
  br i1 %.not, label %.thread, label %37

37:                                               ; preds = %Vec_WecFree.exit
  %38 = getelementptr inbounds nuw i8, ptr %0, i64 72
  %39 = load ptr, ptr %38, align 8, !tbaa !52
  %40 = icmp eq ptr %39, null
  br i1 %40, label %Vec_MemHashFree.exit, label %41

41:                                               ; preds = %37
  %42 = getelementptr inbounds nuw i8, ptr %39, i64 32
  %43 = load ptr, ptr %42, align 8, !tbaa !130
  %44 = icmp eq ptr %43, null
  br i1 %44, label %Vec_IntFreeP.exit.i, label %45

45:                                               ; preds = %41
  %46 = getelementptr inbounds nuw i8, ptr %43, i64 8
  %47 = load ptr, ptr %46, align 8, !tbaa !34
  %.not.i.i16 = icmp eq ptr %47, null
  br i1 %.not.i.i16, label %50, label %.thread.i.i

.thread.i.i:                                      ; preds = %45
  tail call void @free(ptr noundef nonnull %47) #23
  %48 = load ptr, ptr %42, align 8, !tbaa !130
  %49 = getelementptr inbounds nuw i8, ptr %48, i64 8
  store ptr null, ptr %49, align 8, !tbaa !34
  br label %50

50:                                               ; preds = %.thread.i.i, %45
  %51 = phi ptr [ %48, %.thread.i.i ], [ %43, %45 ]
  tail call void @free(ptr noundef nonnull %51) #23
  store ptr null, ptr %42, align 8, !tbaa !130
  br label %Vec_IntFreeP.exit.i

Vec_IntFreeP.exit.i:                              ; preds = %50, %41
  %52 = getelementptr inbounds nuw i8, ptr %39, i64 40
  %53 = load ptr, ptr %52, align 8, !tbaa !130
  %54 = icmp eq ptr %53, null
  br i1 %54, label %Vec_MemHashFree.exit, label %55

55:                                               ; preds = %Vec_IntFreeP.exit.i
  %56 = getelementptr inbounds nuw i8, ptr %53, i64 8
  %57 = load ptr, ptr %56, align 8, !tbaa !34
  %.not.i3.i = icmp eq ptr %57, null
  br i1 %.not.i3.i, label %60, label %.thread.i4.i

.thread.i4.i:                                     ; preds = %55
  tail call void @free(ptr noundef nonnull %57) #23
  %58 = load ptr, ptr %52, align 8, !tbaa !130
  %59 = getelementptr inbounds nuw i8, ptr %58, i64 8
  store ptr null, ptr %59, align 8, !tbaa !34
  br label %60

60:                                               ; preds = %.thread.i4.i, %55
  %61 = phi ptr [ %58, %.thread.i4.i ], [ %53, %55 ]
  tail call void @free(ptr noundef nonnull %61) #23
  store ptr null, ptr %52, align 8, !tbaa !130
  br label %Vec_MemHashFree.exit

Vec_MemHashFree.exit:                             ; preds = %60, %Vec_IntFreeP.exit.i, %37
  %.pr = load i32, ptr %35, align 4, !tbaa !51
  %.not10 = icmp eq i32 %.pr, 0
  br i1 %.not10, label %.thread, label %62

62:                                               ; preds = %Vec_MemHashFree.exit
  %63 = load ptr, ptr %38, align 8, !tbaa !52
  %64 = getelementptr inbounds nuw i8, ptr %63, i64 20
  %65 = load i32, ptr %64, align 4, !tbaa !124
  %.not19.i = icmp slt i32 %65, 0
  %.phi.trans.insert.i = getelementptr inbounds nuw i8, ptr %63, i64 24
  %.pre23.i = load ptr, ptr %.phi.trans.insert.i, align 8, !tbaa !53
  br i1 %.not19.i, label %._crit_edge.i, label %.lr.ph.i

.lr.ph.i:                                         ; preds = %62, %73
  %66 = phi i32 [ %74, %73 ], [ %65, %62 ]
  %67 = phi ptr [ %75, %73 ], [ %.pre23.i, %62 ]
  %indvars.iv.i = phi i64 [ %indvars.iv.next.i, %73 ], [ 0, %62 ]
  %68 = getelementptr inbounds nuw ptr, ptr %67, i64 %indvars.iv.i
  %69 = load ptr, ptr %68, align 8, !tbaa !57
  %.not18.i = icmp eq ptr %69, null
  br i1 %.not18.i, label %73, label %70

70:                                               ; preds = %.lr.ph.i
  tail call void @free(ptr noundef nonnull %69) #23
  %71 = load ptr, ptr %.phi.trans.insert.i, align 8, !tbaa !53
  %72 = getelementptr inbounds nuw ptr, ptr %71, i64 %indvars.iv.i
  store ptr null, ptr %72, align 8, !tbaa !57
  %.pre22.i = load i32, ptr %64, align 4, !tbaa !124
  br label %73

73:                                               ; preds = %70, %.lr.ph.i
  %74 = phi i32 [ %.pre22.i, %70 ], [ %66, %.lr.ph.i ]
  %75 = phi ptr [ %71, %70 ], [ %67, %.lr.ph.i ]
  %indvars.iv.next.i = add nuw nsw i64 %indvars.iv.i, 1
  %76 = sext i32 %74 to i64
  %.not.not.i = icmp slt i64 %indvars.iv.i, %76
  br i1 %.not.not.i, label %.lr.ph.i, label %.loopexit, !llvm.loop !131

._crit_edge.i:                                    ; preds = %62
  %.not16.i = icmp eq ptr %.pre23.i, null
  br i1 %.not16.i, label %.thread19, label %.loopexit

.thread19:                                        ; preds = %._crit_edge.i
  tail call void @free(ptr noundef nonnull %63) #23
  br label %.thread

.loopexit:                                        ; preds = %73, %._crit_edge.i
  %77 = phi ptr [ %.pre23.i, %._crit_edge.i ], [ %75, %73 ]
  tail call void @free(ptr noundef nonnull %77) #23
  tail call void @free(ptr noundef nonnull %63) #23
  %.not11 = icmp eq ptr %0, null
  br i1 %.not11, label %78, label %.thread

.thread:                                          ; preds = %Vec_WecFree.exit, %Vec_MemHashFree.exit, %.thread19, %.loopexit
  tail call void @free(ptr noundef nonnull %0) #23
  br label %78

78:                                               ; preds = %.loopexit, %.thread
  ret void
}